target datalayout = "e-m:e-p270:32:32-p271:32:32-p272:64:64-i64:64-i128:128-f80:128-n8:16:32:64-S128"
target triple = "x86_64-pc-linux-gnu"

%struct.dt_develop_blend_params_t = type { i32, i32, i32, float, float, i32, i32, i32, float, i32, float, float, float, float, i32, [2 x i32], [64 x float], [16 x float], [20 x i8], i32, i32, i32 }
%struct.dt_pthread_mutex_t = type { %union.pthread_mutex_t }
%union.pthread_mutex_t = type { %struct.__pthread_mutex_s }
%struct.__pthread_mutex_s = type { i32, i32, i32, i32, i32, i16, i16, %struct.__pthread_internal_list }
%struct.__pthread_internal_list = type { ptr, ptr }
%struct.dt_dev_histogram_stats_t = type { i32, i64, i32, i32 }
%struct.dt_dev_pixelpipe_iop_t = type { ptr, ptr, ptr, ptr, i32, i32, %struct.dt_dev_histogram_collection_params_t, ptr, %struct.dt_dev_histogram_stats_t, [4 x i32], float, i32, i32, i64, i32, i32, %struct.dt_iop_roi_t, %struct.dt_iop_roi_t, %struct.dt_iop_roi_t, %struct.dt_iop_roi_t, i32, i32, %struct.dt_iop_buffer_dsc_t, %struct.dt_iop_buffer_dsc_t, ptr, [8 x i8] }
%struct.dt_dev_histogram_collection_params_t = type { ptr, i32 }
%struct.dt_iop_roi_t = type { i32, i32, i32, i32, float }
%struct.dt_iop_buffer_dsc_t = type { i32, i32, i32, [6 x [6 x i8]], %struct.anon, [12 x i8], %struct.anon.0, [4 x float], i32, [12 x i8] }
%struct.anon = type { i16, i16 }
%struct.anon.0 = type { i32, [12 x i8], [4 x float] }
%struct.dt_image_t = type { i32, i32, float, float, float, float, float, float, float, [64 x i8], [64 x i8], [128 x i8], [64 x i8], [64 x i8], [64 x i8], [64 x i8], i64, i32, %union.dt_image_correction_data_t, [64 x i8], [64 x i8], [64 x i8], [128 x i8], i32, [256 x i8], i32, i32, i32, i32, i32, i32, i32, i32, i32, i32, float, i32, i32, i32, i32, i32, i32, i64, i64, i64, i64, i32, [12 x i8], %struct.dt_iop_buffer_dsc_t, [9 x float], ptr, i32, i32, %struct.dt_image_raw_parameters_t, %struct.dt_image_geoloc_t, %struct._color_harmony_t, i16, [4 x i16], i32, i32, float, float, [4 x float], [4 x [3 x float]], [4 x float], ptr, ptr, i32, i32, [8 x i8] }
%union.dt_image_correction_data_t = type { %struct.anon.5 }
%struct.anon.5 = type { i32, float, [11 x float], [11 x float], [11 x float], [11 x float], [11 x float] }
%struct.dt_image_raw_parameters_t = type { i32 }
%struct.dt_image_geoloc_t = type { double, double, double }
%struct._color_harmony_t = type { i32, i32, i32 }
%struct.dt_dev_pixelpipe_t = type { %struct.dt_dev_pixelpipe_cache_t, i32, i64, ptr, i32, i32, float, i32, i32, [12 x i8], %struct.dt_iop_buffer_dsc_t, ptr, ptr, ptr, ptr, i32, i32, i32, i32, ptr, i64, i32, i32, float, float, float, i64, %struct.dt_pthread_mutex_t, %struct.dt_pthread_mutex_t, %struct.dt_pthread_mutex_t, i32, i32, i32, %struct.dt_dev_detail_mask_t, i32, i32, i32, i32, i32, i32, i32, i32, i32, i32, i32, i32, i32, i32, [8 x i8], %struct.dt_image_t, i32, ptr, i32, ptr, ptr, ptr, i32, ptr, i64, [8 x i8] }
%struct.dt_dev_pixelpipe_cache_t = type { i32, i64, i64, ptr, ptr, ptr, ptr, ptr, ptr, i64, i32, i64, i64, i32, i32, i32 }
%struct.dt_dev_detail_mask_t = type { %struct.dt_iop_roi_t, i64, ptr }
%struct.dt_develop_tiling_t = type { float, float, float, float, i32, i32, i32, i32 }

; Function Attrs: nounwind uwtable
define void @tiling_callback_blendop(ptr noundef %0, ptr noundef %1, ptr noundef %2, ptr noundef %3, ptr noundef %4) #0 {
  %6 = alloca ptr, align 8
  %7 = alloca ptr, align 8
  %8 = alloca ptr, align 8
  %9 = alloca ptr, align 8
  %10 = alloca ptr, align 8
  %11 = alloca ptr, align 8
  %12 = alloca ptr, align 8
  store ptr %0, ptr %6, align 8, !tbaa !6
  store ptr %1, ptr %7, align 8, !tbaa !38
  store ptr %2, ptr %8, align 8, !tbaa !84
  store ptr %3, ptr %9, align 8, !tbaa !84
  store ptr %4, ptr %10, align 8, !tbaa !163
  %13 = load ptr, ptr %10, align 8, !tbaa !163
  %14 = getelementptr inbounds nuw %struct.dt_develop_tiling_t, ptr %13, i32 0, i32 0
  store float 0.000000e+00, ptr %14, align 4, !tbaa !165
  %15 = load ptr, ptr %10, align 8, !tbaa !163
  %16 = getelementptr inbounds nuw %struct.dt_develop_tiling_t, ptr %15, i32 0, i32 2
  store float 1.000000e+00, ptr %16, align 4, !tbaa !167
  %17 = load ptr, ptr %10, align 8, !tbaa !163
  %18 = getelementptr inbounds nuw %struct.dt_develop_tiling_t, ptr %17, i32 0, i32 4
  store i32 0, ptr %18, align 4, !tbaa !168
  %19 = load ptr, ptr %10, align 8, !tbaa !163
  %20 = getelementptr inbounds nuw %struct.dt_develop_tiling_t, ptr %19, i32 0, i32 5
  store i32 0, ptr %20, align 4, !tbaa !169
  %21 = load ptr, ptr %10, align 8, !tbaa !163
  %22 = getelementptr inbounds nuw %struct.dt_develop_tiling_t, ptr %21, i32 0, i32 6
  store i32 1, ptr %22, align 4, !tbaa !170
  %23 = load ptr, ptr %10, align 8, !tbaa !163
  %24 = getelementptr inbounds nuw %struct.dt_develop_tiling_t, ptr %23, i32 0, i32 7
  store i32 1, ptr %24, align 4, !tbaa !171
  call void @llvm.lifetime.start.p0(i64 8, ptr %11) #10
  %25 = load ptr, ptr %7, align 8, !tbaa !38
  %26 = getelementptr inbounds nuw %struct.dt_dev_pixelpipe_iop_t, ptr %25, i32 0, i32 3
  %27 = load ptr, ptr %26, align 8, !tbaa !40
  store ptr %27, ptr %11, align 8, !tbaa !30
  %28 = load ptr, ptr %11, align 8, !tbaa !30
  %29 = icmp ne ptr %28, null
  br i1 %29, label %30, label %88

30:                                               ; preds = %5
  %31 = load ptr, ptr %11, align 8, !tbaa !30
  %32 = getelementptr inbounds nuw %struct.dt_develop_blend_params_t, ptr %31, i32 0, i32 13
  %33 = load float, ptr %32, align 4, !tbaa !140
  %34 = fcmp reassoc nsz arcp contract afn une float %33, 0.000000e+00
  br i1 %34, label %35, label %68

35:                                               ; preds = %30
  call void @llvm.lifetime.start.p0(i64 8, ptr %12) #10
  %36 = load ptr, ptr %7, align 8, !tbaa !38
  %37 = getelementptr inbounds nuw %struct.dt_dev_pixelpipe_iop_t, ptr %36, i32 0, i32 1
  %38 = load ptr, ptr %37, align 8, !tbaa !56
  %39 = getelementptr inbounds nuw %struct.dt_dev_pixelpipe_t, ptr %38, i32 0, i32 33
  store ptr %39, ptr %12, align 8, !tbaa !172
  %40 = load ptr, ptr %12, align 8, !tbaa !172
  %41 = getelementptr inbounds nuw %struct.dt_dev_detail_mask_t, ptr %40, i32 0, i32 2
  %42 = load ptr, ptr %41, align 8, !tbaa !174
  %43 = icmp ne ptr %42, null
  br i1 %43, label %44, label %67

44:                                               ; preds = %35
  %45 = load ptr, ptr %12, align 8, !tbaa !172
  %46 = getelementptr inbounds nuw %struct.dt_dev_detail_mask_t, ptr %45, i32 0, i32 0
  %47 = getelementptr inbounds nuw %struct.dt_iop_roi_t, ptr %46, i32 0, i32 2
  %48 = load i32, ptr %47, align 8, !tbaa !175
  %49 = load ptr, ptr %12, align 8, !tbaa !172
  %50 = getelementptr inbounds nuw %struct.dt_dev_detail_mask_t, ptr %49, i32 0, i32 0
  %51 = getelementptr inbounds nuw %struct.dt_iop_roi_t, ptr %50, i32 0, i32 3
  %52 = load i32, ptr %51, align 4, !tbaa !176
  %53 = mul nsw i32 %48, %52
  %54 = sitofp i32 %53 to float
  %55 = fmul reassoc nsz arcp contract afn float 5.000000e-01, %54
  %56 = load ptr, ptr %8, align 8, !tbaa !84
  %57 = getelementptr inbounds nuw %struct.dt_iop_roi_t, ptr %56, i32 0, i32 2
  %58 = load i32, ptr %57, align 4, !tbaa !94
  %59 = load ptr, ptr %8, align 8, !tbaa !84
  %60 = getelementptr inbounds nuw %struct.dt_iop_roi_t, ptr %59, i32 0, i32 3
  %61 = load i32, ptr %60, align 4, !tbaa !95
  %62 = mul nsw i32 %58, %61
  %63 = sitofp i32 %62 to float
  %64 = fdiv reassoc nsz arcp contract afn float %55, %63
  %65 = load ptr, ptr %10, align 8, !tbaa !163
  %66 = getelementptr inbounds nuw %struct.dt_develop_tiling_t, ptr %65, i32 0, i32 0
  store float %64, ptr %66, align 4, !tbaa !165
  br label %67

67:                                               ; preds = %44, %35
  call void @llvm.lifetime.end.p0(i64 8, ptr %12) #10
  br label %68

68:                                               ; preds = %67, %30
  %69 = load ptr, ptr %11, align 8, !tbaa !30
  %70 = getelementptr inbounds nuw %struct.dt_develop_blend_params_t, ptr %69, i32 0, i32 8
  %71 = load float, ptr %70, align 4, !tbaa !141
  %72 = fcmp reassoc nsz arcp contract afn ogt float %71, 0x3FB99999A0000000
  br i1 %72, label %73, label %87

73:                                               ; preds = %68
  %74 = load ptr, ptr %10, align 8, !tbaa !163
  %75 = getelementptr inbounds nuw %struct.dt_develop_tiling_t, ptr %74, i32 0, i32 0
  %76 = load float, ptr %75, align 4, !tbaa !165
  %77 = fcmp reassoc nsz arcp contract afn ogt float %76, 4.500000e+00
  br i1 %77, label %78, label %82

78:                                               ; preds = %73
  %79 = load ptr, ptr %10, align 8, !tbaa !163
  %80 = getelementptr inbounds nuw %struct.dt_develop_tiling_t, ptr %79, i32 0, i32 0
  %81 = load float, ptr %80, align 4, !tbaa !165
  br label %83

82:                                               ; preds = %73
  br label %83

83:                                               ; preds = %82, %78
  %84 = phi reassoc nsz arcp contract afn float [ %81, %78 ], [ 4.500000e+00, %82 ]
  %85 = load ptr, ptr %10, align 8, !tbaa !163
  %86 = getelementptr inbounds nuw %struct.dt_develop_tiling_t, ptr %85, i32 0, i32 0
  store float %84, ptr %86, align 4, !tbaa !165
  br label %87

87:                                               ; preds = %83, %68
  br label %88

88:                                               ; preds = %87, %5
  %89 = load ptr, ptr %10, align 8, !tbaa !163
  %90 = getelementptr inbounds nuw %struct.dt_develop_tiling_t, ptr %89, i32 0, i32 0
  %91 = load float, ptr %90, align 4, !tbaa !165
  %92 = fadd reassoc nsz arcp contract afn float %91, 3.500000e+00
  store float %92, ptr %90, align 4, !tbaa !165
  call void @llvm.lifetime.end.p0(i64 8, ptr %11) #10
  ret void
}