; Function Attrs: mustprogress nofree norecurse nosync nounwind willreturn memory(read, argmem: readwrite, inaccessiblemem: none) uwtable
define void @tiling_callback_blendop(ptr noundef readnone captures(none) %0, ptr noundef readonly captures(none) %1, ptr noundef readonly captures(none) %2, ptr noundef readnone captures(none) %3, ptr noundef writeonly captures(none) initializes((0, 4), (8, 12), (16, 32)) %4) local_unnamed_addr #11 {
  %6 = getelementptr inbounds nuw i8, ptr %4, i64 8
  store float 1.000000e+00, ptr %6, align 4, !tbaa !148
  %7 = getelementptr inbounds nuw i8, ptr %4, i64 16
  store i32 0, ptr %7, align 4, !tbaa !150
  %8 = getelementptr inbounds nuw i8, ptr %4, i64 20
  store i32 0, ptr %8, align 4, !tbaa !151
  %9 = getelementptr inbounds nuw i8, ptr %4, i64 24
  store i32 1, ptr %9, align 4, !tbaa !152
  %10 = getelementptr inbounds nuw i8, ptr %4, i64 28
  store i32 1, ptr %10, align 4, !tbaa !153
  %11 = getelementptr inbounds nuw i8, ptr %1, i64 24
  %12 = load ptr, ptr %11, align 8, !tbaa !35
  %.not = icmp eq ptr %12, null
  br i1 %.not, label %45, label %13

13:                                               ; preds = %5
  %14 = getelementptr inbounds nuw i8, ptr %12, i64 52
  %15 = load float, ptr %14, align 4, !tbaa !134
  %16 = fcmp reassoc nsz arcp contract afn une float %15, 0.000000e+00
  br i1 %16, label %17, label %37

17:                                               ; preds = %13
  %18 = getelementptr inbounds nuw i8, ptr %1, i64 8
  %19 = load ptr, ptr %18, align 8, !tbaa !46
  %20 = getelementptr inbounds nuw i8, ptr %19, i64 568
  %21 = load ptr, ptr %20, align 8, !tbaa !154
  %.not22 = icmp eq ptr %21, null
  br i1 %.not22, label %37, label %22

22:                                               ; preds = %17
  %23 = getelementptr inbounds nuw i8, ptr %19, i64 544
  %24 = load i32, ptr %23, align 8, !tbaa !155
  %25 = getelementptr inbounds nuw i8, ptr %19, i64 548
  %26 = load i32, ptr %25, align 4, !tbaa !156
  %27 = mul nsw i32 %26, %24
  %28 = sitofp i32 %27 to float
  %29 = fmul reassoc nsz arcp contract afn float %28, 5.000000e-01
  %30 = getelementptr inbounds nuw i8, ptr %2, i64 8
  %31 = load i32, ptr %30, align 4, !tbaa !83
  %32 = getelementptr inbounds nuw i8, ptr %2, i64 12
  %33 = load i32, ptr %32, align 4, !tbaa !84
  %34 = mul nsw i32 %33, %31
  %35 = sitofp i32 %34 to float
  %36 = fdiv reassoc nsz arcp contract afn float %29, %35
  br label %37

37:                                               ; preds = %17, %22, %13
  %38 = phi float [ 0.000000e+00, %17 ], [ %36, %22 ], [ 0.000000e+00, %13 ]
  %39 = getelementptr inbounds nuw i8, ptr %12, i64 32
  %40 = load float, ptr %39, align 4, !tbaa !121
  %41 = fcmp reassoc nsz arcp contract afn ogt float %40, 0x3FB99999A0000000
  br i1 %41, label %42, label %45

42:                                               ; preds = %37
  %43 = fcmp reassoc nsz arcp contract afn ogt float %38, 4.500000e+00
  %44 = select reassoc nsz arcp contract afn i1 %43, float %38, float 4.500000e+00
  br label %45

45:                                               ; preds = %37, %42, %5
  %46 = phi float [ %38, %37 ], [ %44, %42 ], [ 0.000000e+00, %5 ]
  %47 = fadd reassoc nsz arcp contract afn float %46, 3.500000e+00
  store float %47, ptr %4, align 4, !tbaa !157
  ret void
}